target datalayout = "e-m:e-p270:32:32-p271:32:32-p272:64:64-i64:64-i128:128-f80:128-n8:16:32:64-S128"
target triple = "x86_64-pc-linux-gnu"

; Function Attrs: mustprogress nounwind uwtable
define internal void @_ZN2cvL6LUT8u_IfEEvPKhPKT_PS3_iii(ptr noundef %0, ptr noundef %1, ptr noundef %2, i32 noundef %3, i32 noundef %4, i32 noundef %5) #4 {
  %7 = alloca ptr, align 8
  %8 = alloca ptr, align 8
  %9 = alloca ptr, align 8
  %10 = alloca i32, align 4
  %11 = alloca i32, align 4
  %12 = alloca i32, align 4
  %13 = alloca i32, align 4
  %14 = alloca i32, align 4
  %15 = alloca i32, align 4
  %16 = alloca i32, align 4
  store ptr %0, ptr %7, align 8, !tbaa !39
  store ptr %1, ptr %8, align 8, !tbaa !86
  store ptr %2, ptr %9, align 8, !tbaa !86
  store i32 %3, ptr %10, align 4, !tbaa !10
  store i32 %4, ptr %11, align 4, !tbaa !10
  store i32 %5, ptr %12, align 4, !tbaa !10
  %17 = load i32, ptr %12, align 4, !tbaa !10
  %18 = icmp eq i32 %17, 1
  br i1 %18, label %19, label %45

19:                                               ; preds = %6
  call void @llvm.lifetime.start.p0(i64 4, ptr %13) #13
  store i32 0, ptr %13, align 4, !tbaa !10
  br label %20

20:                                               ; preds = %41, %19
  %21 = load i32, ptr %13, align 4, !tbaa !10
  %22 = load i32, ptr %10, align 4, !tbaa !10
  %23 = load i32, ptr %11, align 4, !tbaa !10
  %24 = mul nsw i32 %22, %23
  %25 = icmp slt i32 %21, %24
  br i1 %25, label %27, label %26

26:                                               ; preds = %20
  call void @llvm.lifetime.end.p0(i64 4, ptr %13) #13
  br label %44

27:                                               ; preds = %20
  %28 = load ptr, ptr %8, align 8, !tbaa !86
  %29 = load ptr, ptr %7, align 8, !tbaa !39
  %30 = load i32, ptr %13, align 4, !tbaa !10
  %31 = sext i32 %30 to i64
  %32 = getelementptr inbounds i8, ptr %29, i64 %31
  %33 = load i8, ptr %32, align 1, !tbaa !92
  %34 = zext i8 %33 to i64
  %35 = getelementptr inbounds nuw float, ptr %28, i64 %34
  %36 = load float, ptr %35, align 4, !tbaa !110
  %37 = load ptr, ptr %9, align 8, !tbaa !86
  %38 = load i32, ptr %13, align 4, !tbaa !10
  %39 = sext i32 %38 to i64
  %40 = getelementptr inbounds float, ptr %37, i64 %39
  store float %36, ptr %40, align 4, !tbaa !110
  br label %41

41:                                               ; preds = %27
  %42 = load i32, ptr %13, align 4, !tbaa !10
  %43 = add nsw i32 %42, 1
  store i32 %43, ptr %13, align 4, !tbaa !10
  br label %20, !llvm.loop !112

44:                                               ; preds = %26
  br label %91

45:                                               ; preds = %6
  call void @llvm.lifetime.start.p0(i64 4, ptr %14) #13
  store i32 0, ptr %14, align 4, !tbaa !10
  br label %46

46:                                               ; preds = %86, %45
  %47 = load i32, ptr %14, align 4, !tbaa !10
  %48 = load i32, ptr %10, align 4, !tbaa !10
  %49 = load i32, ptr %11, align 4, !tbaa !10
  %50 = mul nsw i32 %48, %49
  %51 = icmp slt i32 %47, %50
  br i1 %51, label %53, label %52

52:                                               ; preds = %46
  store i32 5, ptr %15, align 4
  call void @llvm.lifetime.end.p0(i64 4, ptr %14) #13
  br label %90

53:                                               ; preds = %46
  call void @llvm.lifetime.start.p0(i64 4, ptr %16) #13
  store i32 0, ptr %16, align 4, !tbaa !10
  br label %54

54:                                               ; preds = %82, %53
  %55 = load i32, ptr %16, align 4, !tbaa !10
  %56 = load i32, ptr %11, align 4, !tbaa !10
  %57 = icmp slt i32 %55, %56
  br i1 %57, label %59, label %58

58:                                               ; preds = %54
  store i32 8, ptr %15, align 4
  call void @llvm.lifetime.end.p0(i64 4, ptr %16) #13
  br label %85

59:                                               ; preds = %54
  %60 = load ptr, ptr %8, align 8, !tbaa !86
  %61 = load ptr, ptr %7, align 8, !tbaa !39
  %62 = load i32, ptr %14, align 4, !tbaa !10
  %63 = load i32, ptr %16, align 4, !tbaa !10
  %64 = add nsw i32 %62, %63
  %65 = sext i32 %64 to i64
  %66 = getelementptr inbounds i8, ptr %61, i64 %65
  %67 = load i8, ptr %66, align 1, !tbaa !92
  %68 = zext i8 %67 to i32
  %69 = load i32, ptr %11, align 4, !tbaa !10
  %70 = mul nsw i32 %68, %69
  %71 = load i32, ptr %16, align 4, !tbaa !10
  %72 = add nsw i32 %70, %71
  %73 = sext i32 %72 to i64
  %74 = getelementptr inbounds float, ptr %60, i64 %73
  %75 = load float, ptr %74, align 4, !tbaa !110
  %76 = load ptr, ptr %9, align 8, !tbaa !86
  %77 = load i32, ptr %14, align 4, !tbaa !10
  %78 = load i32, ptr %16, align 4, !tbaa !10
  %79 = add nsw i32 %77, %78
  %80 = sext i32 %79 to i64
  %81 = getelementptr inbounds float, ptr %76, i64 %80
  store float %75, ptr %81, align 4, !tbaa !110
  br label %82

82:                                               ; preds = %59
  %83 = load i32, ptr %16, align 4, !tbaa !10
  %84 = add nsw i32 %83, 1
  store i32 %84, ptr %16, align 4, !tbaa !10
  br label %54, !llvm.loop !113

85:                                               ; preds = %58
  br label %86

86:                                               ; preds = %85
  %87 = load i32, ptr %11, align 4, !tbaa !10
  %88 = load i32, ptr %14, align 4, !tbaa !10
  %89 = add nsw i32 %88, %87
  store i32 %89, ptr %14, align 4, !tbaa !10
  br label %46, !llvm.loop !114

90:                                               ; preds = %52
  br label %91

91:                                               ; preds = %90, %44
  ret void
}

; Function Attrs: mustprogress uwtable
define internal void @_ZN2cvL9LUT8u_32fEPKhPKfPfiii(ptr noundef %0, ptr noundef %1, ptr noundef %2, i32 noundef %3, i32 noundef %4, i32 noundef %5) #0 {
  %7 = alloca ptr, align 8
  %8 = alloca ptr, align 8
  %9 = alloca ptr, align 8
  %10 = alloca i32, align 4
  %11 = alloca i32, align 4
  %12 = alloca i32, align 4
  store ptr %0, ptr %7, align 8, !tbaa !39
  store ptr %1, ptr %8, align 8, !tbaa !86
  store ptr %2, ptr %9, align 8, !tbaa !86
  store i32 %3, ptr %10, align 4, !tbaa !10
  store i32 %4, ptr %11, align 4, !tbaa !10
  store i32 %5, ptr %12, align 4, !tbaa !10
  %13 = load ptr, ptr %7, align 8, !tbaa !39
  %14 = load ptr, ptr %8, align 8, !tbaa !86
  %15 = load ptr, ptr %9, align 8, !tbaa !86
  %16 = load i32, ptr %10, align 4, !tbaa !10
  %17 = load i32, ptr %11, align 4, !tbaa !10
  %18 = load i32, ptr %12, align 4, !tbaa !10
  call void @_ZN2cvL6LUT8u_IfEEvPKhPKT_PS3_iii(ptr noundef %13, ptr noundef %14, ptr noundef %15, i32 noundef %16, i32 noundef %17, i32 noundef %18)
  ret void
}